; Function Attrs: nounwind uwtable
define internal ptr @paramspecargs_repr(ptr noundef readonly captures(none) %0) #0 {
  %2 = tail call align 8 ptr @llvm.threadlocal.address.p0(ptr align 8 @_Py_tss_tstate)
  %3 = load ptr, ptr %2, align 8, !tbaa !28
  %4 = getelementptr inbounds nuw i8, ptr %3, i64 16
  %5 = load ptr, ptr %4, align 8, !tbaa !39
  %6 = getelementptr inbounds nuw i8, ptr %5, i64 224520
  %7 = load ptr, ptr %6, align 8, !tbaa !125
  %8 = getelementptr inbounds nuw i8, ptr %0, i64 16
  %9 = load ptr, ptr %8, align 8, !tbaa !151
  %10 = getelementptr i8, ptr %9, i64 8
  %.val = load ptr, ptr %10, align 8, !tbaa !18
  %.not = icmp eq ptr %.val, %7
  br i1 %.not, label %11, label %15

11:                                               ; preds = %1
  %12 = getelementptr inbounds nuw i8, ptr %9, i64 16
  %13 = load ptr, ptr %12, align 8, !tbaa !126
  %14 = tail call ptr (ptr, ...) @PyUnicode_FromFormat(ptr noundef nonnull @.str.69, ptr noundef %13) #8
  br label %17

15:                                               ; preds = %1
  %16 = tail call ptr (ptr, ...) @PyUnicode_FromFormat(ptr noundef nonnull @.str.70, ptr noundef nonnull %9) #8
  br label %17

17:                                               ; preds = %15, %11
  %.0 = phi ptr [ %14, %11 ], [ %16, %15 ]
  ret ptr %.0
}